; Function Attrs: nounwind uwtable
define dso_local range(i32 -1, 2) i32 @git_configset_get_string(ptr noundef %0, ptr noundef %1, ptr noundef writeonly captures(none) %2) local_unnamed_addr #0 {
  %4 = alloca %struct.config_set_element, align 8
  %5 = alloca ptr, align 8
  call void @llvm.lifetime.start.p0(i64 64, ptr nonnull %4) #30
  call void @llvm.lifetime.start.p0(i64 8, ptr nonnull %5) #30
  %6 = call i32 @git_config_parse_key(ptr noundef %1, ptr noundef nonnull %5, ptr noundef null)
  %.not.i.i.i = icmp eq i32 %6, 0
  br i1 %.not.i.i.i, label %7, label %configset_find_element.exit.i.i

configset_find_element.exit.i.i:                  ; preds = %3
  call void @llvm.lifetime.end.p0(i64 8, ptr nonnull %5) #30
  call void @llvm.lifetime.end.p0(i64 64, ptr nonnull %4) #30
  br label %git_config_string.exit

7:                                                ; preds = %3
  %8 = load ptr, ptr %5, align 8, !tbaa !17
  %9 = tail call i32 @strhash(ptr noundef %8) #30
  %10 = getelementptr inbounds nuw i8, ptr %4, i64 8
  store i32 %9, ptr %10, align 8, !tbaa !114
  store ptr null, ptr %4, align 8, !tbaa !115
  %11 = getelementptr inbounds nuw i8, ptr %4, i64 16
  store ptr %8, ptr %11, align 8, !tbaa !108
  %12 = call ptr @hashmap_get(ptr noundef %0, ptr noundef nonnull %4, ptr noundef null) #30
  call void @free(ptr noundef %8) #30
  call void @llvm.lifetime.end.p0(i64 8, ptr nonnull %5) #30
  call void @llvm.lifetime.end.p0(i64 64, ptr nonnull %4) #30
  %.not6.i.i = icmp eq ptr %12, null
  br i1 %.not6.i.i, label %git_config_string.exit, label %13

13:                                               ; preds = %7
  %14 = getelementptr inbounds nuw i8, ptr %12, i64 24
  %15 = load ptr, ptr %14, align 8, !tbaa !97
  %16 = getelementptr inbounds nuw i8, ptr %12, i64 32
  %17 = load i64, ptr %16, align 8, !tbaa !100
  %18 = getelementptr %struct.string_list_item, ptr %15, i64 %17
  %19 = getelementptr i8, ptr %18, i64 -16
  %.sroa.0.0.copyload.i = load ptr, ptr %19, align 8, !tbaa !17
  %.not.i = icmp eq ptr %.sroa.0.0.copyload.i, null
  br i1 %.not.i, label %20, label %25

20:                                               ; preds = %13
  %21 = load i32, ptr @git_gettext_enabled, align 4, !tbaa !14
  %.not4.i.i.i = icmp eq i32 %21, 0
  br i1 %.not4.i.i.i, label %config_error_nonbool.exit.i, label %22

22:                                               ; preds = %20
  %23 = call ptr @dcgettext(ptr noundef null, ptr noundef nonnull @.str.74, i32 noundef 5) #30
  br label %config_error_nonbool.exit.i

config_error_nonbool.exit.i:                      ; preds = %22, %20
  %.0.i.i.i = phi ptr [ %23, %22 ], [ @.str.74, %20 ]
  %24 = call i32 (ptr, ...) @error(ptr noundef %.0.i.i.i, ptr noundef %1) #30
  br label %git_config_string.exit

25:                                               ; preds = %13
  %26 = call ptr @xstrdup(ptr noundef nonnull %.sroa.0.0.copyload.i) #30
  store ptr %26, ptr %2, align 8, !tbaa !17
  br label %git_config_string.exit

git_config_string.exit:                           ; preds = %configset_find_element.exit.i.i, %7, %25, %config_error_nonbool.exit.i
  %.0 = phi i32 [ 0, %25 ], [ -1, %config_error_nonbool.exit.i ], [ 1, %7 ], [ 1, %configset_find_element.exit.i.i ]
  ret i32 %.0
}